(dp0
S'cookies'
p1
(dp2
S'wxloadtime'
p3
S'1511005355'
p4
sS'webwx_data_ticket'
p5
S'gSdV4ILtfo/MYtxhYSXBBLRG'
p6
sS'wxuin'
p7
S'3340888410'
p8
sS'login_frequency'
p9
S'2'
p10
sS'MM_WX_NOTIFY_STATE'
p11
S'1'
p12
sS'MM_WX_SOUND_STATE'
p13
g12
sS'webwx_auth_ticket'
p14
S'CIsBEKHXqNAIGoAB6gyFR13ZtjLame0MRjSbzM+NMjoD2IMKRK9Owg7mIz/nTr//zw+e9SxTJ8jEdfshP94TS1gIo4i4EwU8G/ke7/El3toRk9q2CTr+/ty5mmcqrJadL9uhEhbdI0iQ+ULLv1Lr3d3ntWV1DYAklPeCU3jQdKFR0XmI8zz0+LsPH9Y='
p15
sS'last_wxuin'
p16
S'3340888410'
p17
sS'webwxuvid'
p18
S'1ec9fae37d2032a2a7e5da82fd560698382322f85fe675bdb49bda4de0f3607820706ef737722d18de5c837c1c098079'
p19
sS'wxpluginkey'
p20
S'1511005302'
p21
sS'wxsid'
p22
S'GMFaZuG3D8A8QZij'
p23
sS'mm_lang'
p24
S'zh_CN'
p25
ssS'version'
p26
S'1.3.10'
p27
sS'storage'
p28
(dp29
S'userName'
p30
V@a7755eb828f8c6f447d25587638a72529ab53769c3a86ae9dcafee62bb806cdc
p31
sS'lastInputUserName'
p32
NsS'memberList'
p33
ccopy_reg
_reconstructor
p34
(citchat.storage.templates
ContactList
p35
c__builtin__
list
p36
(lp37
g34
(citchat.storage.templates
User
p38
c__builtin__
dict
p39
(dp40
S'UserName'
p41
g31
sS'City'
p42
S''
p43
sS'DisplayName'
p44
g43
sS'UniFriend'
p45
I0
sS'OwnerUin'
p46
I0
sS'MemberList'
p47
g34
(g35
g36
(lp48
tp49
Rp50
I1
bsS'PYQuanPin'
p51
V
p52
sS'RemarkPYInitial'
p53
g52
sS'Uin'
p54
I3340888410
sS'AppAccountFlag'
p55
I0
sS'VerifyFlag'
p56
I0
sS'Province'
p57
g43
sS'KeyWord'
p58
g43
sS'RemarkName'
p59
g52
sS'PYInitial'
p60
g52
sS'ChatRoomId'
p61
I0
sS'HideInputBarFlag'
p62
I0
sVHeadImgFlag
p63
I1
sS'EncryChatRoomId'
p64
g43
sS'AttrStatus'
p65
I0
sS'SnsFlag'
p66
I0
sS'MemberCount'
p67
I0
sVWebWxPluginSwitch
p68
I0
sS'Alias'
p69
g43
sS'Signature'
p70
g52
sS'ContactFlag'
p71
I0
sS'NickName'
p72
Vatest
p73
sS'RemarkPYQuanPin'
p74
g52
sS'HeadImgUrl'
p75
V/cgi-bin/mmwebwx-bin/webwxgeticon?seq=1257777824&username=@a7755eb828f8c6f447d25587638a72529ab53769c3a86ae9dcafee62bb806cdc&skey=@crypt_51178914_1f6ccd91f997edfa13dac71db85e46f4
p76
sS'Sex'
p77
I1
sS'StarFriend'
p78
I0
sS'Statues'
p79
I0
stp80
Rp81
I1
bag34
(g38
g39
(dp82
VUserName
p83
V@2bb09c85f7c9e3197f84e56ee2a038f49927c90ba6957f4d4f127b5040dbf62d
p84
sVCity
p85
V\u5df4\u5f66\u6dd6\u5c14
p86
sVSnsFlag
p87
I0
sVDisplayName
p88
g52
sVUniFriend
p89
I0
sVMemberCount
p90
I0
sVOwnerUin
p91
I0
sVMemberList
p92
g50
sVAlias
p93
g52
sVPYQuanPin
p94
Vhuanglizhuo
p95
sVSignature
p96
g52
sVRemarkPYInitial
p97
VLIZHUO
p98
sVContactFlag
p99
I3
sVUin
p100
I0
sVNickName
p101
V\u9ec4\u7acb\u5353
p102
sVAppAccountFlag
p103
I0
sVVerifyFlag
p104
I0
sVRemarkPYQuanPin
p105
Vlizhuo
p106
sVHeadImgUrl
p107
V/cgi-bin/mmwebwx-bin/webwxgeticon?seq=601360054&username=@2bb09c85f7c9e3197f84e56ee2a038f49927c90ba6957f4d4f127b5040dbf62d&skey=@crypt_51178914_1f6ccd91f997edfa13dac71db85e46f4
p108
sVKeyWord
p109
g52
sVProvince
p110
V\u5185\u8499\u53e4
p111
sVPYInitial
p112
VHLZ
p113
sVRemarkName
p114
Vlizhuo
p115
sVIsOwner
p116
I0
sVSex
p117
I1
sVStarFriend
p118
I0
sVHideInputBarFlag
p119
I0
sVChatRoomId
p120
I0
sVEncryChatRoomId
p121
g52
sVAttrStatus
p122
I33784103
sVStatues
p123
I0
stp124
Rp125
I1
batp126
Rp127
I1
bsS'chatroomList'
p128
g34
(g35
g36
(lp129
g34
(citchat.storage.templates
Chatroom
p130
g39
(dp131
VUserName
p132
V@@5f044f3b511ed58b63fe39bd0935fbd91dcf4de1786f3e7d1c85dc42b4d22d63
p133
sVCity
p134
g52
sVDisplayName
p135
g52
sVUniFriend
p136
I0
sS'Self'
p137
g34
(g38
g39
(dp138
g41
g31
sg42
g43
sg44
g43
sg45
I0
sg46
I0
sg47
g34
(g35
g36
(lp139
tp140
Rp141
I1
bsg51
g52
sg53
g52
sg54
I3340888410
sg55
I0
sg56
I0
sg57
g43
sg58
g43
sg59
g52
sg60
g52
sg61
I0
sg62
I0
sg63
I1
sg64
g43
sg65
I0
sg66
I0
sg67
I0
sg68
I0
sg69
g43
sg70
g52
sg71
I0
sg72
g73
sg74
g52
sg75
g76
sg77
I1
sg78
I0
sg79
I0
stp142
Rp143
I1
bsVMemberList
p144
g34
(g35
g36
(lp145
tp146
Rp147
I1
bsVPYQuanPin
p148
g52
sVRemarkPYInitial
p149
g52
sVSex
p150
I0
sVAppAccountFlag
p151
I0
sVVerifyFlag
p152
I0
sVProvince
p153
g52
sVKeyWord
p154
g52
sVRemarkName
p155
g52
sVPYInitial
p156
g52
sVIsOwner
p157
I0
sVChatRoomId
p158
I0
sVHideInputBarFlag
p159
I0
sVEncryChatRoomId
p160
g52
sVAttrStatus
p161
I0
sVSnsFlag
p162
I0
sVMemberCount
p163
I98
sVOwnerUin
p164
I0
sVAlias
p165
g52
sS'IsAdmin'
p166
NsVSignature
p167
g52
sVContactFlag
p168
I0
sVNickName
p169
V\u5ef6\u671f\u6bd5\u4e1a\u7fa4
p170
sVRemarkPYQuanPin
p171
g52
sVHeadImgUrl
p172
V/cgi-bin/mmwebwx-bin/webwxgetheadimg?seq=0&username=@@5f044f3b511ed58b63fe39bd0935fbd91dcf4de1786f3e7d1c85dc42b4d22d63&skey=@crypt_51178914_1f6ccd91f997edfa13dac71db85e46f4
p173
sVUin
p174
I0
sVStarFriend
p175
I0
sVStatues
p176
I0
stp177
Rp178
I1
batp179
Rp180
I1
bsS'nickName'
p181
g73
sS'mpList'
p182
g34
(g35
g36
(lp183
tp184
Rp185
I1
bssS'loginInfo'
p186
(dp187
S'SyncKey'
p188
(dp189
VCount
p190
I4
sVList
p191
(lp192
(dp193
VVal
p194
I601361295
sVKey
p195
I1
sa(dp196
VVal
p197
I601361417
sVKey
p198
I2
sa(dp199
VVal
p200
I601361409
sVKey
p201
I3
sa(dp202
VVal
p203
I1511005302
sVKey
p204
I1000
sassS'syncUrl'
p205
S'https://webpush.wx2.qq.com/cgi-bin/mmwebwx-bin'
p206
sS'skey'
p207
V@crypt_51178914_1f6ccd91f997edfa13dac71db85e46f4
p208
sS'wxuin'
p209
V3340888410
p210
sS'synckey'
p211
S'1_601361295|2_601361417|3_601361409|1000_1511005302'
p212
sS'url'
p213
Vhttps://wx2.qq.com/cgi-bin/mmwebwx-bin
p214
sS'pass_ticket'
p215
VOhjDNP3bYSpf9uaWu0ZgV4rWc7697Ztc72IbpCcqyCxMYEaB6dFLC%2F3Owe%2Fn2U7%2F
p216
sS'wxsid'
p217
VGMFaZuG3D8A8QZij
p218
sS'InviteStartCount'
p219
I40
sS'User'
p220
g34
(g38
g39
(dp221
g41
g31
sg42
g43
sg44
g43
sg45
I0
sg47
g50
sg51
g52
sg53
g52
sg77
I1
sg55
I0
sg56
I0
sg57
g43
sg58
g43
sg59
g52
sg60
g52
sg61
I0
sg62
I0
sg63
I1
sg64
g43
sg65
I0
sg68
I0
sg66
I0
sg67
I0
sg46
I0
sg69
g43
sg70
g52
sg71
I0
sg72
g73
sg74
g52
sg75
g76
sg54
I3340888410
sg78
I0
sg79
I0
stp222
Rp223
I1
bsS'fileUrl'
p224
S'https://file.wx2.qq.com/cgi-bin/mmwebwx-bin'
p225
sS'BaseRequest'
p226
(dp227
g54
g210
sS'Skey'
p228
g208
sS'DeviceID'
p229
g216
sS'Sid'
p230
g218
ssS'deviceid'
p231
S'e295684083085217'
p232
ss.